; Function Attrs: nounwind uwtable
define i32 @arkStep_SetNonlinCRDown(ptr noundef %0, double noundef %1) local_unnamed_addr #0 {
  %3 = alloca ptr, align 8
  call void @llvm.lifetime.start.p0(i64 8, ptr nonnull %3) #5
  %4 = call i32 @arkStep_AccessStepMem(ptr noundef %0, ptr noundef nonnull @__func__.arkStep_SetNonlinCRDown, ptr noundef nonnull %3) #5
  %.not = icmp eq i32 %4, 0
  br i1 %.not, label %.sink.split, label %8

.sink.split:                                      ; preds = %2
  %5 = fcmp ugt double %1, 0.000000e+00
  %6 = load ptr, ptr %3, align 8, !tbaa !3
  %7 = getelementptr inbounds nuw i8, ptr %6, i64 192
  %. = select i1 %5, double %1, double 3.000000e-01
  store double %., ptr %7, align 8, !tbaa !67
  br label %8

8:                                                ; preds = %.sink.split, %2
  call void @llvm.lifetime.end.p0(i64 8, ptr nonnull %3) #5
  ret i32 %4
}